ccopy_reg
_reconstructor
p1
(cnupic.frameworks.opf.htm_prediction_model
HTMPredictionModel
p2
c__builtin__
object
p3
NtRp4
(dp5
S'_HTMPredictionModel__finishedLearning'
p6
I00
sS'_predictedFieldIdx'
p7
NsS'_minLikelihoodThreshold'
p8
F0.0001
sS'_Model__inferenceType'
p9
S'TemporalAnomaly'
p10
sS'_HTMPredictionModel__spLearningEnabled'
p11
I01
sS'_Model__inferenceArgs'
p12
(dp13
S'predictedField'
p14
S'z'
ssS'_netInfo'
p15
g1
(cnupic.frameworks.opf.htm_prediction_model
NetworkInfo
p16
g3
NtRp17
(dp18
S'net'
p19
NsS'statsCollectors'
p20
(lp21
sbsS'_hasCL'
p22
I00
sS'_hasSP'
p23
I01
sS'_classifierInputEncoder'
p24
NsS'_Model__learningEnabled'
p25
I01
sS'_Model__inferenceEnabled'
p26
I01
sS'_HTMPredictionModel__numRunCalls'
p27
I33000
sS'_HTMPredictionModel__trainSPNetOnlyIfRequested'
p28
I00
sS'_maxPredictionsPerStep'
p29
I8
sS'_HTMPredictionModel__tpLearningEnabled'
p30
I01
sS'_input'
p31
(dp32
S'y'
F0.037573553699999998
sS'x'
F0.9649018761
sS'z'
F0.0066031280000000006
sS'timestamp'
p33
cdatetime
datetime
p34
(S'\x07\xe4\x01\x12\x01:$\x03\xbe*'
tRp35
ssS'_HTMPredictionModel__restoringFromV1'
p36
I00
sS'_numPredictions'
p37
I33000
sS'_predictedFieldName'
p38
S'z'
sS'_hasTP'
p39
I01
sS'_numFields'
p40
Nsb.